; Function Attrs: mustprogress nofree norecurse nosync nounwind willreturn memory(read, inaccessiblemem: none) uwtable
define hidden noundef zeroext i1 @_ZNK4cvc58internal3smt11SetDefaults7isSygusERKNS0_7OptionsE(ptr nocapture noundef nonnull readonly align 8 dereferenceable(17) %this, ptr nocapture noundef nonnull readonly align 8 dereferenceable(392) %opts) local_unnamed_addr #5 align 2 {
entry:
  %quantifiers = getelementptr inbounds i8, ptr %opts, i64 328
  %0 = load ptr, ptr %quantifiers, align 8
  %sygus = getelementptr inbounds i8, ptr %0, i64 363
  %1 = load i8, ptr %sygus, align 1
  %2 = and i8 %1, 1
  %tobool.not = icmp eq i8 %2, 0
  br i1 %tobool.not, label %if.end, label %return

if.end:                                           ; preds = %entry
  %d_isInternalSubsolver = getelementptr inbounds i8, ptr %this, i64 16
  %3 = load i8, ptr %d_isInternalSubsolver, align 8
  %4 = and i8 %3, 1
  %tobool2.not = icmp eq i8 %4, 0
  br i1 %tobool2.not, label %if.then3, label %if.end12

if.then3:                                         ; preds = %if.end
  %smt = getelementptr inbounds i8, ptr %opts, i64 352
  %5 = load ptr, ptr %smt, align 8
  %produceAbducts = getelementptr inbounds i8, ptr %5, i64 99
  %6 = load i8, ptr %produceAbducts, align 1
  %7 = and i8 %6, 1
  %tobool4.not = icmp eq i8 %7, 0
  br i1 %tobool4.not, label %lor.lhs.false, label %return

lor.lhs.false:                                    ; preds = %if.then3
  %produceInterpolants = getelementptr inbounds i8, ptr %5, i64 107
  %8 = load i8, ptr %produceInterpolants, align 1
  %9 = and i8 %8, 1
  %tobool6.not = icmp eq i8 %9, 0
  br i1 %tobool6.not, label %lor.lhs.false7, label %return

lor.lhs.false7:                                   ; preds = %lor.lhs.false
  %sygusInference = getelementptr inbounds i8, ptr %0, i64 461
  %10 = load i8, ptr %sygusInference, align 1
  %11 = and i8 %10, 1
  %tobool9.not = icmp eq i8 %11, 0
  br i1 %tobool9.not, label %if.end12, label %return

if.end12:                                         ; preds = %lor.lhs.false7, %if.end
  br label %return

return:                                           ; preds = %if.then3, %lor.lhs.false, %lor.lhs.false7, %entry, %if.end12
  %retval.0 = phi i1 [ false, %if.end12 ], [ true, %entry ], [ true, %lor.lhs.false7 ], [ true, %lor.lhs.false ], [ true, %if.then3 ]
  ret i1 %retval.0
}